; Function Attrs: mustprogress uwtable
define dso_local noundef nonnull align 8 dereferenceable(37) ptr @_ZN5vcpkg13XmlSerializer10line_breakEv(ptr noundef nonnull returned align 8 dereferenceable(37) %0) local_unnamed_addr #0 align 2 personality ptr @__gxx_personality_v0 {
  %2 = getelementptr inbounds nuw i8, ptr %0, i64 8
  %3 = load i64, ptr %2, align 8, !tbaa !4
  %4 = add i64 %3, 1
  %5 = load ptr, ptr %0, align 8, !tbaa !19
  %6 = getelementptr inbounds nuw i8, ptr %0, i64 16
  %7 = icmp eq ptr %5, %6
  br i1 %7, label %8, label %_ZNKSt7__cxx1112basic_stringIcSt11char_traitsIcESaIcEE8capacityEv.exit.i

8:                                                ; preds = %1
  %9 = icmp ult i64 %3, 16
  tail call void @llvm.assume(i1 %9)
  br label %_ZNKSt7__cxx1112basic_stringIcSt11char_traitsIcESaIcEE8capacityEv.exit.i

_ZNKSt7__cxx1112basic_stringIcSt11char_traitsIcESaIcEE8capacityEv.exit.i: ; preds = %8, %1
  %10 = load i64, ptr %6, align 8
  %11 = select i1 %7, i64 15, i64 %10
  %12 = icmp ugt i64 %4, %11
  br i1 %12, label %13, label %_ZNSt7__cxx1112basic_stringIcSt11char_traitsIcESaIcEE9push_backEc.exit

13:                                               ; preds = %_ZNKSt7__cxx1112basic_stringIcSt11char_traitsIcESaIcEE8capacityEv.exit.i
  tail call void @_ZNSt7__cxx1112basic_stringIcSt11char_traitsIcESaIcEE9_M_mutateEmmPKcm(ptr noundef nonnull align 8 dereferenceable(32) %0, i64 noundef %3, i64 noundef 0, ptr noundef null, i64 noundef 1)
  %.pre.i = load ptr, ptr %0, align 8, !tbaa !19
  br label %_ZNSt7__cxx1112basic_stringIcSt11char_traitsIcESaIcEE9push_backEc.exit

_ZNSt7__cxx1112basic_stringIcSt11char_traitsIcESaIcEE9push_backEc.exit: ; preds = %_ZNKSt7__cxx1112basic_stringIcSt11char_traitsIcESaIcEE8capacityEv.exit.i, %13
  %14 = phi ptr [ %.pre.i, %13 ], [ %5, %_ZNKSt7__cxx1112basic_stringIcSt11char_traitsIcESaIcEE8capacityEv.exit.i ]
  %15 = getelementptr inbounds nuw i8, ptr %14, i64 %3
  store i8 10, ptr %15, align 1, !tbaa !20
  store i64 %4, ptr %2, align 8, !tbaa !4
  %16 = load ptr, ptr %0, align 8, !tbaa !19
  %17 = getelementptr inbounds nuw i8, ptr %16, i64 %4
  store i8 0, ptr %17, align 1, !tbaa !20
  %18 = getelementptr inbounds nuw i8, ptr %0, i64 36
  store i8 1, ptr %18, align 4, !tbaa !12
  ret ptr %0
}